target datalayout = "e-m:e-p270:32:32-p271:32:32-p272:64:64-i64:64-i128:128-f80:128-n8:16:32:64-S128"
target triple = "x86_64-pc-linux-gnu"

%"struct.faiss::IndexBinary" = type { ptr, i32, i32, i64, i8, i8, i32 }

; Function Attrs: mustprogress uwtable
define void @_ZNK5faiss11IndexBinary13reconstruct_nEllPh(ptr noundef nonnull align 8 dereferenceable(32) %0, i64 noundef %1, i64 noundef %2, ptr noundef %3) unnamed_addr #1 align 2 {
  %5 = alloca ptr, align 8
  %6 = alloca i64, align 8
  %7 = alloca i64, align 8
  %8 = alloca ptr, align 8
  %9 = alloca i64, align 8
  store ptr %0, ptr %5, align 8
  store i64 %1, ptr %6, align 8
  store i64 %2, ptr %7, align 8
  store ptr %3, ptr %8, align 8
  %10 = load ptr, ptr %5, align 8
  store i64 0, ptr %9, align 8
  br label %11

11:                                               ; preds = %29, %4
  %12 = load i64, ptr %9, align 8
  %13 = load i64, ptr %7, align 8
  %14 = icmp slt i64 %12, %13
  br i1 %14, label %15, label %32

15:                                               ; preds = %11
  %16 = load i64, ptr %6, align 8
  %17 = load i64, ptr %9, align 8
  %18 = add nsw i64 %16, %17
  %19 = load ptr, ptr %8, align 8
  %20 = load i64, ptr %9, align 8
  %21 = getelementptr inbounds %"struct.faiss::IndexBinary", ptr %10, i32 0, i32 2
  %22 = load i32, ptr %21, align 4
  %23 = sext i32 %22 to i64
  %24 = mul nsw i64 %20, %23
  %25 = getelementptr inbounds i8, ptr %19, i64 %24
  %26 = load ptr, ptr %10, align 8
  %27 = getelementptr inbounds ptr, ptr %26, i64 9
  %28 = load ptr, ptr %27, align 8
  call void %28(ptr noundef nonnull align 8 dereferenceable(32) %10, i64 noundef %18, ptr noundef %25)
  br label %29

29:                                               ; preds = %15
  %30 = load i64, ptr %9, align 8
  %31 = add nsw i64 %30, 1
  store i64 %31, ptr %9, align 8
  br label %11, !llvm.loop !5

32:                                               ; preds = %11
  ret void
}