; Function Attrs: mustprogress uwtable
define void @_ZNK5faiss11IndexBinary13reconstruct_nEllPh(ptr noundef nonnull align 8 dereferenceable(32) %0, i64 noundef %1, i64 noundef %2, ptr noundef %3) unnamed_addr #3 align 2 {
  %5 = icmp sgt i64 %2, 0
  br i1 %5, label %.lr.ph, label %._crit_edge

.lr.ph:                                           ; preds = %4
  %6 = getelementptr inbounds i8, ptr %0, i64 12
  br label %7

7:                                                ; preds = %.lr.ph, %7
  %.07 = phi i64 [ 0, %.lr.ph ], [ %16, %7 ]
  %8 = add nsw i64 %.07, %1
  %9 = load i32, ptr %6, align 4
  %10 = sext i32 %9 to i64
  %11 = mul nsw i64 %.07, %10
  %12 = getelementptr inbounds i8, ptr %3, i64 %11
  %13 = load ptr, ptr %0, align 8
  %14 = getelementptr inbounds i8, ptr %13, i64 72
  %15 = load ptr, ptr %14, align 8
  tail call void %15(ptr noundef nonnull align 8 dereferenceable(32) %0, i64 noundef %8, ptr noundef %12)
  %16 = add nuw nsw i64 %.07, 1
  %exitcond.not = icmp eq i64 %16, %2
  br i1 %exitcond.not, label %._crit_edge, label %7, !llvm.loop !5

._crit_edge:                                      ; preds = %7, %4
  ret void
}